; ModuleID = '64/1176.c'
source_filename = "64/1176.c"
target datalayout = "e-m:e-p270:32:32-p271:32:32-p272:64:64-i64:64-f80:128-n8:16:32:64-S128"
target triple = "x86_64-pc-linux-gnu"

@.str = private unnamed_addr constant [3 x i8] c"%d\00", align 1
@.str.1 = private unnamed_addr constant [7 x i8] c"%d%d%d\00", align 1
@.str.2 = private unnamed_addr constant [29 x i8] c"(%d,%d,%d)-(%d,%d,%d)=%.2lf\0A\00", align 1

; Function Attrs: noinline nounwind uwtable
define dso_local i32 @main() #0 {
  %1 = alloca i32, align 4
  %2 = alloca i32, align 4
  %3 = alloca i32, align 4
  %4 = alloca i32, align 4
  %5 = alloca i32, align 4
  %6 = alloca i32, align 4
  %7 = alloca i32, align 4
  %8 = alloca i32, align 4
  %9 = alloca i32, align 4
  %10 = alloca [100 x i32], align 16
  %11 = alloca [100 x i32], align 16
  %12 = alloca [100 x i32], align 16
  %13 = alloca [100 x i32], align 16
  %14 = alloca [100 x i32], align 16
  %15 = alloca [450 x double], align 16
  %16 = alloca double, align 8
  store i32 0, i32* %1, align 4
  store i32 0, i32* %4, align 4
  %17 = call i32 (i8*, ...) @__isoc99_scanf(i8* getelementptr inbounds ([3 x i8], [3 x i8]* @.str, i64 0, i64 0), i32* %2)
  store i32 0, i32* %3, align 4
  br label %18

18:                                               ; preds = %33, %0
  %19 = load i32, i32* %3, align 4
  %20 = load i32, i32* %2, align 4
  %21 = icmp slt i32 %19, %20
  br i1 %21, label %22, label %36

22:                                               ; preds = %18
  %23 = load i32, i32* %3, align 4
  %24 = sext i32 %23 to i64
  %25 = getelementptr inbounds [100 x i32], [100 x i32]* %10, i64 0, i64 %24
  %26 = load i32, i32* %3, align 4
  %27 = sext i32 %26 to i64
  %28 = getelementptr inbounds [100 x i32], [100 x i32]* %11, i64 0, i64 %27
  %29 = load i32, i32* %3, align 4
  %30 = sext i32 %29 to i64
  %31 = getelementptr inbounds [100 x i32], [100 x i32]* %12, i64 0, i64 %30
  %32 = call i32 (i8*, ...) @__isoc99_scanf(i8* getelementptr inbounds ([7 x i8], [7 x i8]* @.str.1, i64 0, i64 0), i32* %25, i32* %28, i32* %31)
  br label %33

33:                                               ; preds = %22
  %34 = load i32, i32* %3, align 4
  %35 = add nsw i32 %34, 1
  store i32 %35, i32* %3, align 4
  br label %18

36:                                               ; preds = %18
  store i32 0, i32* %5, align 4
  br label %37

37:                                               ; preds = %111, %36
  %38 = load i32, i32* %5, align 4
  %39 = load i32, i32* %2, align 4
  %40 = sub nsw i32 %39, 1
  %41 = icmp slt i32 %38, %40
  br i1 %41, label %42, label %114

42:                                               ; preds = %37
  %43 = load i32, i32* %5, align 4
  %44 = add nsw i32 %43, 1
  store i32 %44, i32* %3, align 4
  br label %45

45:                                               ; preds = %107, %42
  %46 = load i32, i32* %3, align 4
  %47 = load i32, i32* %2, align 4
  %48 = icmp slt i32 %46, %47
  br i1 %48, label %49, label %110

49:                                               ; preds = %45
  %50 = load i32, i32* %5, align 4
  %51 = sext i32 %50 to i64
  %52 = getelementptr inbounds [100 x i32], [100 x i32]* %10, i64 0, i64 %51
  %53 = load i32, i32* %52, align 4
  %54 = load i32, i32* %3, align 4
  %55 = sext i32 %54 to i64
  %56 = getelementptr inbounds [100 x i32], [100 x i32]* %10, i64 0, i64 %55
  %57 = load i32, i32* %56, align 4
  %58 = sub nsw i32 %53, %57
  %59 = sitofp i32 %58 to double
  %60 = call double @pow(double %59, double 2.000000e+00) #3
  %61 = fmul double 1.000000e+00, %60
  %62 = load i32, i32* %5, align 4
  %63 = sext i32 %62 to i64
  %64 = getelementptr inbounds [100 x i32], [100 x i32]* %11, i64 0, i64 %63
  %65 = load i32, i32* %64, align 4
  %66 = load i32, i32* %3, align 4
  %67 = sext i32 %66 to i64
  %68 = getelementptr inbounds [100 x i32], [100 x i32]* %11, i64 0, i64 %67
  %69 = load i32, i32* %68, align 4
  %70 = sub nsw i32 %65, %69
  %71 = sitofp i32 %70 to double
  %72 = call double @pow(double %71, double 2.000000e+00) #3
  %73 = fadd double %61, %72
  %74 = load i32, i32* %5, align 4
  %75 = sext i32 %74 to i64
  %76 = getelementptr inbounds [100 x i32], [100 x i32]* %12, i64 0, i64 %75
  %77 = load i32, i32* %76, align 4
  %78 = load i32, i32* %3, align 4
  %79 = sext i32 %78 to i64
  %80 = getelementptr inbounds [100 x i32], [100 x i32]* %12, i64 0, i64 %79
  %81 = load i32, i32* %80, align 4
  %82 = sub nsw i32 %77, %81
  %83 = sitofp i32 %82 to double
  %84 = call double @pow(double %83, double 2.000000e+00) #3
  %85 = fadd double %73, %84
  %86 = load i32, i32* %4, align 4
  %87 = sext i32 %86 to i64
  %88 = getelementptr inbounds [450 x double], [450 x double]* %15, i64 0, i64 %87
  store double %85, double* %88, align 8
  %89 = load i32, i32* %4, align 4
  %90 = sext i32 %89 to i64
  %91 = getelementptr inbounds [450 x double], [450 x double]* %15, i64 0, i64 %90
  %92 = load double, double* %91, align 8
  %93 = call double @sqrt(double %92) #3
  %94 = load i32, i32* %4, align 4
  %95 = sext i32 %94 to i64
  %96 = getelementptr inbounds [450 x double], [450 x double]* %15, i64 0, i64 %95
  store double %93, double* %96, align 8
  %97 = load i32, i32* %5, align 4
  %98 = load i32, i32* %4, align 4
  %99 = sext i32 %98 to i64
  %100 = getelementptr inbounds [100 x i32], [100 x i32]* %13, i64 0, i64 %99
  store i32 %97, i32* %100, align 4
  %101 = load i32, i32* %3, align 4
  %102 = load i32, i32* %4, align 4
  %103 = sext i32 %102 to i64
  %104 = getelementptr inbounds [100 x i32], [100 x i32]* %14, i64 0, i64 %103
  store i32 %101, i32* %104, align 4
  %105 = load i32, i32* %4, align 4
  %106 = add nsw i32 %105, 1
  store i32 %106, i32* %4, align 4
  br label %107

107:                                              ; preds = %49
  %108 = load i32, i32* %3, align 4
  %109 = add nsw i32 %108, 1
  store i32 %109, i32* %3, align 4
  br label %45

110:                                              ; preds = %45
  br label %111

111:                                              ; preds = %110
  %112 = load i32, i32* %5, align 4
  %113 = add nsw i32 %112, 1
  store i32 %113, i32* %5, align 4
  br label %37

114:                                              ; preds = %37
  store i32 1, i32* %7, align 4
  br label %115

115:                                              ; preds = %194, %114
  %116 = load i32, i32* %7, align 4
  %117 = load i32, i32* %4, align 4
  %118 = icmp sle i32 %116, %117
  br i1 %118, label %119, label %197

119:                                              ; preds = %115
  store i32 0, i32* %6, align 4
  br label %120

120:                                              ; preds = %190, %119
  %121 = load i32, i32* %6, align 4
  %122 = load i32, i32* %4, align 4
  %123 = load i32, i32* %7, align 4
  %124 = sub nsw i32 %122, %123
  %125 = icmp slt i32 %121, %124
  br i1 %125, label %126, label %193

126:                                              ; preds = %120
  %127 = load i32, i32* %6, align 4
  %128 = sext i32 %127 to i64
  %129 = getelementptr inbounds [450 x double], [450 x double]* %15, i64 0, i64 %128
  %130 = load double, double* %129, align 8
  %131 = load i32, i32* %6, align 4
  %132 = add nsw i32 %131, 1
  %133 = sext i32 %132 to i64
  %134 = getelementptr inbounds [450 x double], [450 x double]* %15, i64 0, i64 %133
  %135 = load double, double* %134, align 8
  %136 = fcmp olt double %130, %135
  br i1 %136, label %137, label %189

137:                                              ; preds = %126
  %138 = load i32, i32* %6, align 4
  %139 = add nsw i32 %138, 1
  %140 = sext i32 %139 to i64
  %141 = getelementptr inbounds [450 x double], [450 x double]* %15, i64 0, i64 %140
  %142 = load double, double* %141, align 8
  store double %142, double* %16, align 8
  %143 = load i32, i32* %6, align 4
  %144 = sext i32 %143 to i64
  %145 = getelementptr inbounds [450 x double], [450 x double]* %15, i64 0, i64 %144
  %146 = load double, double* %145, align 8
  %147 = load i32, i32* %6, align 4
  %148 = add nsw i32 %147, 1
  %149 = sext i32 %148 to i64
  %150 = getelementptr inbounds [450 x double], [450 x double]* %15, i64 0, i64 %149
  store double %146, double* %150, align 8
  %151 = load double, double* %16, align 8
  %152 = load i32, i32* %6, align 4
  %153 = sext i32 %152 to i64
  %154 = getelementptr inbounds [450 x double], [450 x double]* %15, i64 0, i64 %153
  store double %151, double* %154, align 8
  %155 = load i32, i32* %6, align 4
  %156 = add nsw i32 %155, 1
  %157 = sext i32 %156 to i64
  %158 = getelementptr inbounds [100 x i32], [100 x i32]* %13, i64 0, i64 %157
  %159 = load i32, i32* %158, align 4
  store i32 %159, i32* %8, align 4
  %160 = load i32, i32* %6, align 4
  %161 = sext i32 %160 to i64
  %162 = getelementptr inbounds [100 x i32], [100 x i32]* %13, i64 0, i64 %161
  %163 = load i32, i32* %162, align 4
  %164 = load i32, i32* %6, align 4
  %165 = add nsw i32 %164, 1
  %166 = sext i32 %165 to i64
  %167 = getelementptr inbounds [100 x i32], [100 x i32]* %13, i64 0, i64 %166
  store i32 %163, i32* %167, align 4
  %168 = load i32, i32* %8, align 4
  %169 = load i32, i32* %6, align 4
  %170 = sext i32 %169 to i64
  %171 = getelementptr inbounds [100 x i32], [100 x i32]* %13, i64 0, i64 %170
  store i32 %168, i32* %171, align 4
  %172 = load i32, i32* %6, align 4
  %173 = add nsw i32 %172, 1
  %174 = sext i32 %173 to i64
  %175 = getelementptr inbounds [100 x i32], [100 x i32]* %14, i64 0, i64 %174
  %176 = load i32, i32* %175, align 4
  store i32 %176, i32* %9, align 4
  %177 = load i32, i32* %6, align 4
  %178 = sext i32 %177 to i64
  %179 = getelementptr inbounds [100 x i32], [100 x i32]* %14, i64 0, i64 %178
  %180 = load i32, i32* %179, align 4
  %181 = load i32, i32* %6, align 4
  %182 = add nsw i32 %181, 1
  %183 = sext i32 %182 to i64
  %184 = getelementptr inbounds [100 x i32], [100 x i32]* %14, i64 0, i64 %183
  store i32 %180, i32* %184, align 4
  %185 = load i32, i32* %9, align 4
  %186 = load i32, i32* %6, align 4
  %187 = sext i32 %186 to i64
  %188 = getelementptr inbounds [100 x i32], [100 x i32]* %14, i64 0, i64 %187
  store i32 %185, i32* %188, align 4
  br label %189

189:                                              ; preds = %137, %126
  br label %190

190:                                              ; preds = %189
  %191 = load i32, i32* %6, align 4
  %192 = add nsw i32 %191, 1
  store i32 %192, i32* %6, align 4
  br label %120

193:                                              ; preds = %120
  br label %194

194:                                              ; preds = %193
  %195 = load i32, i32* %7, align 4
  %196 = add nsw i32 %195, 1
  store i32 %196, i32* %7, align 4
  br label %115

197:                                              ; preds = %115
  store i32 0, i32* %6, align 4
  br label %198

198:                                              ; preds = %251, %197
  %199 = load i32, i32* %6, align 4
  %200 = load i32, i32* %4, align 4
  %201 = sub nsw i32 %200, 1
  %202 = icmp sle i32 %199, %201
  br i1 %202, label %203, label %254

203:                                              ; preds = %198
  %204 = load i32, i32* %6, align 4
  %205 = sext i32 %204 to i64
  %206 = getelementptr inbounds [100 x i32], [100 x i32]* %13, i64 0, i64 %205
  %207 = load i32, i32* %206, align 4
  %208 = sext i32 %207 to i64
  %209 = getelementptr inbounds [100 x i32], [100 x i32]* %10, i64 0, i64 %208
  %210 = load i32, i32* %209, align 4
  %211 = load i32, i32* %6, align 4
  %212 = sext i32 %211 to i64
  %213 = getelementptr inbounds [100 x i32], [100 x i32]* %13, i64 0, i64 %212
  %214 = load i32, i32* %213, align 4
  %215 = sext i32 %214 to i64
  %216 = getelementptr inbounds [100 x i32], [100 x i32]* %11, i64 0, i64 %215
  %217 = load i32, i32* %216, align 4
  %218 = load i32, i32* %6, align 4
  %219 = sext i32 %218 to i64
  %220 = getelementptr inbounds [100 x i32], [100 x i32]* %13, i64 0, i64 %219
  %221 = load i32, i32* %220, align 4
  %222 = sext i32 %221 to i64
  %223 = getelementptr inbounds [100 x i32], [100 x i32]* %12, i64 0, i64 %222
  %224 = load i32, i32* %223, align 4
  %225 = load i32, i32* %6, align 4
  %226 = sext i32 %225 to i64
  %227 = getelementptr inbounds [100 x i32], [100 x i32]* %14, i64 0, i64 %226
  %228 = load i32, i32* %227, align 4
  %229 = sext i32 %228 to i64
  %230 = getelementptr inbounds [100 x i32], [100 x i32]* %10, i64 0, i64 %229
  %231 = load i32, i32* %230, align 4
  %232 = load i32, i32* %6, align 4
  %233 = sext i32 %232 to i64
  %234 = getelementptr inbounds [100 x i32], [100 x i32]* %14, i64 0, i64 %233
  %235 = load i32, i32* %234, align 4
  %236 = sext i32 %235 to i64
  %237 = getelementptr inbounds [100 x i32], [100 x i32]* %11, i64 0, i64 %236
  %238 = load i32, i32* %237, align 4
  %239 = load i32, i32* %6, align 4
  %240 = sext i32 %239 to i64
  %241 = getelementptr inbounds [100 x i32], [100 x i32]* %14, i64 0, i64 %240
  %242 = load i32, i32* %241, align 4
  %243 = sext i32 %242 to i64
  %244 = getelementptr inbounds [100 x i32], [100 x i32]* %12, i64 0, i64 %243
  %245 = load i32, i32* %244, align 4
  %246 = load i32, i32* %6, align 4
  %247 = sext i32 %246 to i64
  %248 = getelementptr inbounds [450 x double], [450 x double]* %15, i64 0, i64 %247
  %249 = load double, double* %248, align 8
  %250 = call i32 (i8*, ...) @printf(i8* getelementptr inbounds ([29 x i8], [29 x i8]* @.str.2, i64 0, i64 0), i32 %210, i32 %217, i32 %224, i32 %231, i32 %238, i32 %245, double %249)
  br label %251

251:                                              ; preds = %203
  %252 = load i32, i32* %6, align 4
  %253 = add nsw i32 %252, 1
  store i32 %253, i32* %6, align 4
  br label %198

254:                                              ; preds = %198
  ret i32 0
}

declare dso_local i32 @__isoc99_scanf(i8*, ...) #1

; Function Attrs: nounwind
declare dso_local double @pow(double, double) #2

; Function Attrs: nounwind
declare dso_local double @sqrt(double) #2

declare dso_local i32 @printf(i8*, ...) #1


!llvm.module.flags = !{!0}
!llvm.ident = !{!1}

!0 = !{i32 1, !"wchar_size", i32 4}
!1 = !{!"clang version 10.0.0-4ubuntu1 "}
